Certificate:
    Data:
        Version: 3 (0x2)
        Serial Number: 1 (0x1)
    Signature Algorithm: sha256WithRSAEncryption
        Issuer: CN=InvoiceSmashDev Root Certificate Authority, ST=PT, C=PT/emailAddress=SIRS@A43, O=SIRS@A43, OU=SIRS@A43
        Validity
            Not Before: Dec 11 19:15:08 2018 GMT
            Not After : Dec 10 19:15:08 2023 GMT
        Subject: CN=localhost, ST=PT, C=PT/emailAddress=SIRS@A43, O=SIRS@A43, OU=SIRS@A43
        Subject Public Key Info:
            Public Key Algorithm: rsaEncryption
                Public-Key: (4096 bit)
                Modulus:
                    00:94:08:85:80:77:9e:ff:e8:d8:82:04:1a:31:2c:
                    53:ce:34:da:9c:06:f7:c4:a7:a9:34:ac:ab:8f:4f:
                    a7:30:65:2f:ad:2e:5c:86:a7:61:b3:c2:a6:f8:3c:
                    df:b2:fc:91:e5:b5:e0:9b:d9:d9:a6:96:35:09:3e:
                    9c:01:00:c0:d6:85:d2:99:99:12:ef:47:cf:4d:ff:
                    25:1e:e4:4d:58:31:8c:6c:2d:ff:23:57:81:2e:f5:
                    59:7b:96:c4:46:0f:99:2a:69:25:ef:68:7b:7d:91:
                    c6:45:76:36:4b:62:09:8f:6c:69:e3:40:f0:e4:02:
                    36:18:b7:36:90:34:28:55:cc:9b:29:96:49:2c:3a:
                    01:2b:19:6f:43:3b:c5:4e:3c:22:5a:5f:22:81:be:
                    18:60:4b:5f:fa:8a:a6:82:13:00:26:1c:f4:f3:23:
                    d8:5f:49:0b:d5:37:d3:c9:7f:a4:b8:78:b8:ff:11:
                    ed:b5:40:94:e7:56:56:34:ae:15:8d:5c:ff:4e:21:
                    6e:a4:49:84:91:98:ec:26:12:13:aa:cc:dd:a9:f4:
                    7c:5b:5f:ee:54:a0:89:7a:f4:5e:76:3c:55:53:e0:
                    94:a8:2e:2b:a9:c3:24:27:26:3d:58:6a:ea:5a:0f:
                    68:e0:e6:8a:5a:e7:fb:32:6b:97:b0:5a:95:d3:c6:
                    0f:87:34:63:d5:5e:27:cd:f5:ec:47:40:06:49:64:
                    68:94:1c:43:29:79:53:4a:58:21:6b:b1:a2:28:d3:
                    1b:cd:4c:71:3a:c2:e7:02:e0:43:02:5a:52:de:e6:
                    17:59:6d:3f:52:8a:79:6a:08:16:52:93:04:83:58:
                    37:70:e7:fe:11:98:2e:76:af:12:e5:7d:61:90:dc:
                    3e:1c:34:23:76:fb:57:ce:ac:95:c2:c6:62:07:4e:
                    5a:df:53:28:03:0c:23:71:47:ba:29:1e:1a:9e:f2:
                    60:58:fe:5a:ac:86:68:4d:79:00:52:24:e7:02:56:
                    c7:96:2f:25:c0:d7:2a:00:77:06:69:4c:f5:6b:95:
                    0d:38:09:20:dc:a6:7d:05:7c:c8:2e:31:c0:4f:db:
                    96:56:d2:1c:5c:fb:3e:71:5f:be:cb:95:9e:d2:f4:
                    76:fa:02:86:59:6e:d6:35:9a:ec:3e:6c:62:2f:01:
                    0d:62:2e:a0:32:7a:6c:24:fb:60:5b:9f:9b:d0:38:
                    33:a5:68:e1:3f:4c:04:26:be:c2:fc:e6:3b:d3:04:
                    27:ca:2d:74:6a:e5:b3:a3:e4:b3:20:d9:09:18:5d:
                    c3:4e:7a:dd:a3:0f:70:14:74:21:eb:99:25:24:ad:
                    d9:9b:d4:73:9d:57:9a:70:16:8f:10:fc:d3:15:83:
                    ff:21:93
                Exponent: 65537 (0x10001)
        X509v3 extensions:
            X509v3 Basic Constraints: 
                CA:FALSE
            X509v3 Key Usage: 
                Digital Signature, Non Repudiation, Key Encipherment
            X509v3 Subject Alternative Name: 
                DNS:localhost, DNS:api.localhost
    Signature Algorithm: sha256WithRSAEncryption
         4b:32:d3:e3:7c:d4:4a:fd:fe:12:3a:23:2e:72:a3:2f:64:97:
         24:4a:75:97:34:ff:a1:19:17:fc:55:38:6c:80:ef:2e:75:8d:
         fa:96:bd:a2:65:d6:32:70:b5:ad:e0:18:ff:a8:2b:ab:ce:bf:
         47:15:52:72:21:6d:5d:e2:6b:06:0d:6d:47:fb:b9:9f:f9:da:
         dc:0d:63:5f:57:a0:bd:c2:63:42:28:8b:85:54:7e:82:4f:9c:
         50:9c:23:e0:3f:5a:5a:a7:03:8c:a3:da:3d:fb:b3:08:dc:41:
         9b:9a:80:4d:5d:1d:b8:7e:13:a5:e0:13:90:42:83:93:f9:d1:
         13:2c:bf:27:8e:99:85:d6:92:e6:3c:f1:48:23:65:d7:d3:35:
         43:c4:3d:e1:2e:43:ce:03:32:50:4d:77:cd:34:84:39:3c:98:
         8c:82:7f:fd:f5:79:8f:ea:00:09:4b:19:8d:4e:16:f7:ed:da:
         72:26:83:93:2c:ce:c1:c3:d0:20:a8:58:a1:fa:99:fe:95:ce:
         7a:e8:fc:e4:78:58:cc:31:5e:c9:f2:a5:fb:10:f3:51:09:94:
         14:8e:e1:9d:fd:84:c7:d8:30:11:7a:ff:d5:d9:3b:88:90:c9:
         cd:ae:94:3c:cb:6c:1e:e0:4e:46:b5:96:b0:8a:81:05:d0:70:
         c5:10:96:d0:c1:8e:38:db:3b:a1:20:23:41:0c:e0:fc:51:66:
         ff:77:30:e0:ce:da:9c:06:48:96:19:86:ce:8e:55:60:5d:31:
         85:84:5b:b4:70:4d:5f:8e:f0:a7:1f:95:78:7d:37:05:42:5b:
         6d:77:49:4a:69:9d:c5:77:da:10:1e:ad:a5:cb:db:e8:34:54:
         e6:95:65:fa:20:7b:61:56:2d:53:32:18:97:e5:c1:99:39:20:
         86:cc:73:58:9d:d1:a6:4a:22:44:bd:a1:aa:a7:52:be:6a:3b:
         3e:a4:3f:6e:e8:4a:93:a8:4f:66:35:a5:c1:23:15:cd:b6:6c:
         74:0c:e9:84:85:10:af:36:22:93:4f:1b:b2:62:82:58:a3:f0:
         77:99:e7:d8:d8:7c:94:92:dc:8c:03:1d:ce:56:00:76:01:ad:
         3f:57:82:cf:74:ea:1b:be:5e:4e:42:67:96:b1:d8:b8:f6:3f:
         fd:a2:d2:0a:6d:26:e6:fb:cd:f1:17:a3:88:54:2b:06:93:69:
         de:f3:af:b3:04:af:ac:7e:8f:36:37:8a:46:f1:4d:ba:e9:f3:
         dd:f1:d4:3d:35:43:cf:0d:0b:36:2c:c1:09:66:c1:fe:a4:c9:
         14:c0:3d:54:ed:aa:47:e6:73:11:d5:8f:32:9f:34:b3:3b:aa:
         ab:8d:4a:4c:a9:59:29:eb
-----BEGIN CERTIFICATE-----
MIIFtjCCA56gAwIBAgIBATANBgkqhkiG9w0BAQsFADCBjjEzMDEGA1UEAwwqSW52
b2ljZVNtYXNoRGV2IFJvb3QgQ2VydGlmaWNhdGUgQXV0aG9yaXR5MQswCQYDVQQI
DAJQVDELMAkGA1UEBhMCUFQxFzAVBgkqhkiG9w0BCQEWCFNJUlNAQTQzMREwDwYD
VQQKDAhTSVJTQEE0MzERMA8GA1UECwwIU0lSU0BBNDMwHhcNMTgxMjExMTkxNTA4
WhcNMjMxMjEwMTkxNTA4WjBtMRIwEAYDVQQDDAlsb2NhbGhvc3QxCzAJBgNVBAgM
AlBUMQswCQYDVQQGEwJQVDEXMBUGCSqGSIb3DQEJARYIU0lSU0BBNDMxETAPBgNV
BAoMCFNJUlNAQTQzMREwDwYDVQQLDAhTSVJTQEE0MzCCAiIwDQYJKoZIhvcNAQEB
BQADggIPADCCAgoCggIBAJQIhYB3nv/o2IIEGjEsU8402pwG98SnqTSsq49PpzBl
L60uXIanYbPCpvg837L8keW14JvZ2aaWNQk+nAEAwNaF0pmZEu9Hz03/JR7kTVgx
jGwt/yNXgS71WXuWxEYPmSppJe9oe32RxkV2NktiCY9saeNA8OQCNhi3NpA0KFXM
mymWSSw6ASsZb0M7xU48IlpfIoG+GGBLX/qKpoITACYc9PMj2F9JC9U308l/pLh4
uP8R7bVAlOdWVjSuFY1c/04hbqRJhJGY7CYSE6rM3an0fFtf7lSgiXr0XnY8VVPg
lKguK6nDJCcmPVhq6loPaODmilrn+zJrl7BaldPGD4c0Y9VeJ8317EdABklkaJQc
Qyl5U0pYIWuxoijTG81McTrC5wLgQwJaUt7mF1ltP1KKeWoIFlKTBINYN3Dn/hGY
LnavEuV9YZDcPhw0I3b7V86slcLGYgdOWt9TKAMMI3FHuikeGp7yYFj+WqyGaE15
AFIk5wJWx5YvJcDXKgB3BmlM9WuVDTgJINymfQV8yC4xwE/bllbSHFz7PnFfvsuV
ntL0dvoChllu1jWa7D5sYi8BDWIuoDJ6bCT7YFufm9A4M6Vo4T9MBCa+wvzmO9ME
J8otdGrls6PksyDZCRhdw0563aMPcBR0IeuZJSSt2ZvUc51XmnAWjxD80xWD/yGT
AgMBAAGjPzA9MAkGA1UdEwQCMAAwCwYDVR0PBAQDAgXgMCMGA1UdEQQcMBqCCWxv
Y2FsaG9zdIINYXBpLmxvY2FsaG9zdDANBgkqhkiG9w0BAQsFAAOCAgEASzLT43zU
Sv3+EjojLnKjL2SXJEp1lzT/oRkX/FU4bIDvLnWN+pa9omXWMnC1reAY/6grq86/
RxVSciFtXeJrBg1tR/u5n/na3A1jX1egvcJjQiiLhVR+gk+cUJwj4D9aWqcDjKPa
PfuzCNxBm5qATV0duH4TpeATkEKDk/nREyy/J46ZhdaS5jzxSCNl19M1Q8Q94S5D
zgMyUE13zTSEOTyYjIJ//fV5j+oACUsZjU4W9+3aciaDkyzOwcPQIKhYofqZ/pXO
euj85HhYzDFeyfKl+xDzUQmUFI7hnf2Ex9gwEXr/1dk7iJDJza6UPMtsHuBORrWW
sIqBBdBwxRCW0MGOONs7oSAjQQzg/FFm/3cw4M7anAZIlhmGzo5VYF0xhYRbtHBN
X47wpx+VeH03BUJbbXdJSmmdxXfaEB6tpcvb6DRU5pVl+iB7YVYtUzIYl+XBmTkg
hsxzWJ3RpkoiRL2hqqdSvmo7PqQ/buhKk6hPZjWlwSMVzbZsdAzphIUQrzYik08b
smKCWKPwd5nn2Nh8lJLcjAMdzlYAdgGtP1eCz3TqG75eTkJnlrHYuPY//aLSCm0m
5vvN8RejiFQrBpNp3vOvswSvrH6PNjeKRvFNuunz3fHUPTVDzw0LNizBCWbB/qTJ
FMA9VO2qR+ZzEdWPMp80szuqq41KTKlZKes=
-----END CERTIFICATE-----
